; Function Attrs: nofree norecurse nosync nounwind memory(argmem: readwrite) uwtable
define internal fastcc range(i32 0, 5) i32 @httpauth(ptr noundef captures(none) %0, i1 noundef zeroext %1, i64 noundef %2) unnamed_addr #6 {
  %.not = icmp eq i64 %2, 0
  br i1 %.not, label %.thread, label %4

4:                                                ; preds = %3
  %5 = trunc i64 %2 to i8
  %6 = lshr i8 %5, 2
  %7 = and i8 %6, 4
  %. = select i1 %1, i64 3328, i64 3296
  %8 = getelementptr inbounds nuw i8, ptr %0, i64 %.
  %9 = load i8, ptr %8, align 8
  %10 = and i8 %9, -5
  %11 = or disjoint i8 %10, %7
  store i8 %11, ptr %8, align 8
  %12 = lshr i64 %2, 3
  %13 = and i64 %12, 2
  %.masked = and i64 %2, -21
  %14 = or i64 %13, %.masked
  br label %15

15:                                               ; preds = %16, %4
  %indvars.iv = phi i64 [ %indvars.iv.next, %16 ], [ 0, %4 ]
  %exitcond = icmp eq i64 %indvars.iv, 31
  br i1 %exitcond, label %.loopexit, label %16

16:                                               ; preds = %15
  %indvars.iv.next = add nuw nsw i64 %indvars.iv, 1
  %17 = shl nuw nsw i64 1, %indvars.iv
  %18 = and i64 %17, %14
  %.not29 = icmp eq i64 %18, 0
  br i1 %.not29, label %15, label %.thread, !llvm.loop !217

.thread:                                          ; preds = %16, %3
  %.024 = phi i64 [ 0, %3 ], [ %14, %16 ]
  %.37 = select i1 %1, i64 520, i64 512
  %19 = getelementptr inbounds nuw i8, ptr %0, i64 %.37
  store i64 %.024, ptr %19, align 8, !tbaa !18
  br label %.loopexit

.loopexit:                                        ; preds = %15, %.thread
  %.1 = phi i32 [ 0, %.thread ], [ 4, %15 ]
  ret i32 %.1
}